; Function Attrs: nounwind uwtable
define dso_local void @getdelCommand(ptr noundef %0) local_unnamed_addr #0 {
  %2 = getelementptr inbounds nuw i8, ptr %0, i64 96
  %3 = load ptr, ptr %2, align 8, !tbaa !9
  %4 = getelementptr inbounds nuw i8, ptr %3, i64 8
  %5 = load ptr, ptr %4, align 8, !tbaa !29
  %6 = getelementptr inbounds nuw i8, ptr %0, i64 28
  %7 = load i32, ptr %6, align 4, !tbaa !30
  %8 = sext i32 %7 to i64
  %9 = getelementptr inbounds [4 x ptr], ptr getelementptr inbounds nuw (i8, ptr @shared, i64 64), i64 0, i64 %8
  %10 = load ptr, ptr %9, align 8, !tbaa !29
  %11 = tail call ptr @lookupKeyReadOrReply(ptr noundef %0, ptr noundef %5, ptr noundef %10) #11
  %12 = icmp eq ptr %11, null
  br i1 %12, label %16, label %13

13:                                               ; preds = %1
  %14 = tail call i32 @checkType(ptr noundef nonnull %0, ptr noundef nonnull %11, i32 noundef 0) #11
  %.not.i = icmp eq i32 %14, 0
  br i1 %.not.i, label %15, label %getGenericCommand.exit

15:                                               ; preds = %13
  tail call void @addReplyBulk(ptr noundef nonnull %0, ptr noundef nonnull %11) #11
  br label %16

16:                                               ; preds = %15, %1
  %17 = getelementptr inbounds nuw i8, ptr %0, i64 32
  %18 = load ptr, ptr %17, align 8, !tbaa !32
  %19 = load ptr, ptr %2, align 8, !tbaa !9
  %20 = getelementptr inbounds nuw i8, ptr %19, i64 8
  %21 = load ptr, ptr %20, align 8, !tbaa !29
  %22 = tail call i32 @dbSyncDelete(ptr noundef %18, ptr noundef %21) #11
  %.not = icmp eq i32 %22, 0
  br i1 %.not, label %getGenericCommand.exit, label %23

23:                                               ; preds = %16
  %24 = load ptr, ptr getelementptr inbounds nuw (i8, ptr @shared, i64 400), align 8, !tbaa !74
  %25 = load ptr, ptr %2, align 8, !tbaa !9
  %26 = getelementptr inbounds nuw i8, ptr %25, i64 8
  %27 = load ptr, ptr %26, align 8, !tbaa !29
  tail call void (ptr, i32, ...) @rewriteClientCommandVector(ptr noundef nonnull %0, i32 noundef 2, ptr noundef %24, ptr noundef %27) #11
  %28 = load ptr, ptr %17, align 8, !tbaa !32
  %29 = load ptr, ptr %2, align 8, !tbaa !9
  %30 = getelementptr inbounds nuw i8, ptr %29, i64 8
  %31 = load ptr, ptr %30, align 8, !tbaa !29
  tail call void @signalModifiedKey(ptr noundef nonnull %0, ptr noundef %28, ptr noundef %31) #11
  %32 = load ptr, ptr %2, align 8, !tbaa !9
  %33 = getelementptr inbounds nuw i8, ptr %32, i64 8
  %34 = load ptr, ptr %33, align 8, !tbaa !29
  %35 = load ptr, ptr %17, align 8, !tbaa !32
  %36 = getelementptr inbounds nuw i8, ptr %35, i64 56
  %37 = load i32, ptr %36, align 8, !tbaa !54
  tail call void @notifyKeyspaceEvent(i32 noundef 4, ptr noundef nonnull @.str.6, ptr noundef %34, i32 noundef %37) #11
  %38 = load i64, ptr getelementptr inbounds nuw (i8, ptr @server, i64 6720), align 8, !tbaa !33
  %39 = add nsw i64 %38, 1
  store i64 %39, ptr getelementptr inbounds nuw (i8, ptr @server, i64 6720), align 8, !tbaa !33
  br label %getGenericCommand.exit

getGenericCommand.exit:                           ; preds = %13, %23, %16
  ret void
}